target datalayout = "e-m:e-p270:32:32-p271:32:32-p272:64:64-i64:64-i128:128-f80:128-n8:16:32:64-S128"
target triple = "x86_64-pc-linux-gnu"

; Function Attrs: inlinehint nounwind uwtable
define internal float @sqrf(float noundef %0) #3 {
  %2 = alloca float, align 4
  store float %0, ptr %2, align 4, !tbaa !13
  %3 = load float, ptr %2, align 4, !tbaa !13
  %4 = load float, ptr %2, align 4, !tbaa !13
  %5 = fmul reassoc nsz arcp contract afn float %3, %4
  ret float %5
}

; Function Attrs: nounwind uwtable
define internal void @_image_distance_transform(ptr noundef %0, ptr noundef %1, ptr noundef %2, ptr noundef %3, i32 noundef %4) #0 {
  %6 = alloca ptr, align 8
  %7 = alloca ptr, align 8
  %8 = alloca ptr, align 8
  %9 = alloca ptr, align 8
  %10 = alloca i32, align 4
  %11 = alloca i32, align 4
  %12 = alloca i32, align 4
  %13 = alloca float, align 4
  %14 = alloca i32, align 4
  store ptr %0, ptr %6, align 8, !tbaa !6
  store ptr %1, ptr %7, align 8, !tbaa !6
  store ptr %2, ptr %8, align 8, !tbaa !6
  store ptr %3, ptr %9, align 8, !tbaa !54
  store i32 %4, ptr %10, align 4, !tbaa !15
  call void @llvm.lifetime.start.p0(i64 4, ptr %11) #7
  store i32 0, ptr %11, align 4, !tbaa !15
  %15 = load ptr, ptr %9, align 8, !tbaa !54
  %16 = getelementptr inbounds i32, ptr %15, i64 0
  store i32 0, ptr %16, align 4, !tbaa !15
  %17 = load ptr, ptr %7, align 8, !tbaa !6
  %18 = getelementptr inbounds float, ptr %17, i64 0
  store float 0xC415AF1D80000000, ptr %18, align 4, !tbaa !13
  %19 = load ptr, ptr %7, align 8, !tbaa !6
  %20 = getelementptr inbounds float, ptr %19, i64 1
  store float 0x4415AF1D80000000, ptr %20, align 4, !tbaa !13
  call void @llvm.lifetime.start.p0(i64 4, ptr %12) #7
  store i32 1, ptr %12, align 4, !tbaa !15
  br label %21

21:                                               ; preds = %134, %5
  %22 = load i32, ptr %12, align 4, !tbaa !15
  %23 = load i32, ptr %10, align 4, !tbaa !15
  %24 = sub nsw i32 %23, 1
  %25 = icmp sle i32 %22, %24
  br i1 %25, label %27, label %26

26:                                               ; preds = %21
  call void @llvm.lifetime.end.p0(i64 4, ptr %12) #7
  br label %137

27:                                               ; preds = %21
  call void @llvm.lifetime.start.p0(i64 4, ptr %13) #7
  %28 = load ptr, ptr %6, align 8, !tbaa !6
  %29 = load i32, ptr %12, align 4, !tbaa !15
  %30 = sext i32 %29 to i64
  %31 = getelementptr inbounds float, ptr %28, i64 %30
  %32 = load float, ptr %31, align 4, !tbaa !13
  %33 = load i32, ptr %12, align 4, !tbaa !15
  %34 = sitofp i32 %33 to float
  %35 = call reassoc nsz arcp contract afn float @sqrf(float noundef %34)
  %36 = fadd reassoc nsz arcp contract afn float %32, %35
  %37 = load ptr, ptr %6, align 8, !tbaa !6
  %38 = load ptr, ptr %9, align 8, !tbaa !54
  %39 = load i32, ptr %11, align 4, !tbaa !15
  %40 = sext i32 %39 to i64
  %41 = getelementptr inbounds i32, ptr %38, i64 %40
  %42 = load i32, ptr %41, align 4, !tbaa !15
  %43 = sext i32 %42 to i64
  %44 = getelementptr inbounds float, ptr %37, i64 %43
  %45 = load float, ptr %44, align 4, !tbaa !13
  %46 = load ptr, ptr %9, align 8, !tbaa !54
  %47 = load i32, ptr %11, align 4, !tbaa !15
  %48 = sext i32 %47 to i64
  %49 = getelementptr inbounds i32, ptr %46, i64 %48
  %50 = load i32, ptr %49, align 4, !tbaa !15
  %51 = sitofp i32 %50 to float
  %52 = call reassoc nsz arcp contract afn float @sqrf(float noundef %51)
  %53 = fadd reassoc nsz arcp contract afn float %45, %52
  %54 = fsub reassoc nsz arcp contract afn float %36, %53
  store float %54, ptr %13, align 4, !tbaa !13
  br label %55

55:                                               ; preds = %74, %27
  %56 = load float, ptr %13, align 4, !tbaa !13
  %57 = load ptr, ptr %7, align 8, !tbaa !6
  %58 = load i32, ptr %11, align 4, !tbaa !15
  %59 = sext i32 %58 to i64
  %60 = getelementptr inbounds float, ptr %57, i64 %59
  %61 = load float, ptr %60, align 4, !tbaa !13
  %62 = load i32, ptr %12, align 4, !tbaa !15
  %63 = mul nsw i32 2, %62
  %64 = load ptr, ptr %9, align 8, !tbaa !54
  %65 = load i32, ptr %11, align 4, !tbaa !15
  %66 = sext i32 %65 to i64
  %67 = getelementptr inbounds i32, ptr %64, i64 %66
  %68 = load i32, ptr %67, align 4, !tbaa !15
  %69 = mul nsw i32 2, %68
  %70 = sub nsw i32 %63, %69
  %71 = sitofp i32 %70 to float
  %72 = fmul reassoc nsz arcp contract afn float %61, %71
  %73 = fcmp reassoc nsz arcp contract afn ole float %56, %72
  br i1 %73, label %74, label %104

74:                                               ; preds = %55
  %75 = load i32, ptr %11, align 4, !tbaa !15
  %76 = add nsw i32 %75, -1
  store i32 %76, ptr %11, align 4, !tbaa !15
  %77 = load ptr, ptr %6, align 8, !tbaa !6
  %78 = load i32, ptr %12, align 4, !tbaa !15
  %79 = sext i32 %78 to i64
  %80 = getelementptr inbounds float, ptr %77, i64 %79
  %81 = load float, ptr %80, align 4, !tbaa !13
  %82 = load i32, ptr %12, align 4, !tbaa !15
  %83 = sitofp i32 %82 to float
  %84 = call reassoc nsz arcp contract afn float @sqrf(float noundef %83)
  %85 = fadd reassoc nsz arcp contract afn float %81, %84
  %86 = load ptr, ptr %6, align 8, !tbaa !6
  %87 = load ptr, ptr %9, align 8, !tbaa !54
  %88 = load i32, ptr %11, align 4, !tbaa !15
  %89 = sext i32 %88 to i64
  %90 = getelementptr inbounds i32, ptr %87, i64 %89
  %91 = load i32, ptr %90, align 4, !tbaa !15
  %92 = sext i32 %91 to i64
  %93 = getelementptr inbounds float, ptr %86, i64 %92
  %94 = load float, ptr %93, align 4, !tbaa !13
  %95 = load ptr, ptr %9, align 8, !tbaa !54
  %96 = load i32, ptr %11, align 4, !tbaa !15
  %97 = sext i32 %96 to i64
  %98 = getelementptr inbounds i32, ptr %95, i64 %97
  %99 = load i32, ptr %98, align 4, !tbaa !15
  %100 = sitofp i32 %99 to float
  %101 = call reassoc nsz arcp contract afn float @sqrf(float noundef %100)
  %102 = fadd reassoc nsz arcp contract afn float %94, %101
  %103 = fsub reassoc nsz arcp contract afn float %85, %102
  store float %103, ptr %13, align 4, !tbaa !13
  br label %55

104:                                              ; preds = %55
  %105 = load i32, ptr %12, align 4, !tbaa !15
  %106 = mul nsw i32 2, %105
  %107 = load ptr, ptr %9, align 8, !tbaa !54
  %108 = load i32, ptr %11, align 4, !tbaa !15
  %109 = sext i32 %108 to i64
  %110 = getelementptr inbounds i32, ptr %107, i64 %109
  %111 = load i32, ptr %110, align 4, !tbaa !15
  %112 = mul nsw i32 2, %111
  %113 = sub nsw i32 %106, %112
  %114 = sitofp i32 %113 to float
  %115 = load float, ptr %13, align 4, !tbaa !13
  %116 = fdiv reassoc nsz arcp contract afn float %115, %114
  store float %116, ptr %13, align 4, !tbaa !13
  %117 = load i32, ptr %11, align 4, !tbaa !15
  %118 = add nsw i32 %117, 1
  store i32 %118, ptr %11, align 4, !tbaa !15
  %119 = load i32, ptr %12, align 4, !tbaa !15
  %120 = load ptr, ptr %9, align 8, !tbaa !54
  %121 = load i32, ptr %11, align 4, !tbaa !15
  %122 = sext i32 %121 to i64
  %123 = getelementptr inbounds i32, ptr %120, i64 %122
  store i32 %119, ptr %123, align 4, !tbaa !15
  %124 = load float, ptr %13, align 4, !tbaa !13
  %125 = load ptr, ptr %7, align 8, !tbaa !6
  %126 = load i32, ptr %11, align 4, !tbaa !15
  %127 = sext i32 %126 to i64
  %128 = getelementptr inbounds float, ptr %125, i64 %127
  store float %124, ptr %128, align 4, !tbaa !13
  %129 = load ptr, ptr %7, align 8, !tbaa !6
  %130 = load i32, ptr %11, align 4, !tbaa !15
  %131 = add nsw i32 %130, 1
  %132 = sext i32 %131 to i64
  %133 = getelementptr inbounds float, ptr %129, i64 %132
  store float 0x4415AF1D80000000, ptr %133, align 4, !tbaa !13
  call void @llvm.lifetime.end.p0(i64 4, ptr %13) #7
  br label %134

134:                                              ; preds = %104
  %135 = load i32, ptr %12, align 4, !tbaa !15
  %136 = add nsw i32 %135, 1
  store i32 %136, ptr %12, align 4, !tbaa !15
  br label %21

137:                                              ; preds = %26
  store i32 0, ptr %11, align 4, !tbaa !15
  call void @llvm.lifetime.start.p0(i64 4, ptr %14) #7
  store i32 0, ptr %14, align 4, !tbaa !15
  br label %138

138:                                              ; preds = %182, %137
  %139 = load i32, ptr %14, align 4, !tbaa !15
  %140 = load i32, ptr %10, align 4, !tbaa !15
  %141 = sub nsw i32 %140, 1
  %142 = icmp sle i32 %139, %141
  br i1 %142, label %144, label %143

143:                                              ; preds = %138
  call void @llvm.lifetime.end.p0(i64 4, ptr %14) #7
  br label %185

144:                                              ; preds = %138
  br label %145

145:                                              ; preds = %155, %144
  %146 = load ptr, ptr %7, align 8, !tbaa !6
  %147 = load i32, ptr %11, align 4, !tbaa !15
  %148 = add nsw i32 %147, 1
  %149 = sext i32 %148 to i64
  %150 = getelementptr inbounds float, ptr %146, i64 %149
  %151 = load float, ptr %150, align 4, !tbaa !13
  %152 = load i32, ptr %14, align 4, !tbaa !15
  %153 = sitofp i32 %152 to float
  %154 = fcmp reassoc nsz arcp contract afn olt float %151, %153
  br i1 %154, label %155, label %158

155:                                              ; preds = %145
  %156 = load i32, ptr %11, align 4, !tbaa !15
  %157 = add nsw i32 %156, 1
  store i32 %157, ptr %11, align 4, !tbaa !15
  br label %145

158:                                              ; preds = %145
  %159 = load i32, ptr %14, align 4, !tbaa !15
  %160 = load ptr, ptr %9, align 8, !tbaa !54
  %161 = load i32, ptr %11, align 4, !tbaa !15
  %162 = sext i32 %161 to i64
  %163 = getelementptr inbounds i32, ptr %160, i64 %162
  %164 = load i32, ptr %163, align 4, !tbaa !15
  %165 = sub nsw i32 %159, %164
  %166 = sitofp i32 %165 to float
  %167 = call reassoc nsz arcp contract afn float @sqrf(float noundef %166)
  %168 = load ptr, ptr %6, align 8, !tbaa !6
  %169 = load ptr, ptr %9, align 8, !tbaa !54
  %170 = load i32, ptr %11, align 4, !tbaa !15
  %171 = sext i32 %170 to i64
  %172 = getelementptr inbounds i32, ptr %169, i64 %171
  %173 = load i32, ptr %172, align 4, !tbaa !15
  %174 = sext i32 %173 to i64
  %175 = getelementptr inbounds float, ptr %168, i64 %174
  %176 = load float, ptr %175, align 4, !tbaa !13
  %177 = fadd reassoc nsz arcp contract afn float %167, %176
  %178 = load ptr, ptr %8, align 8, !tbaa !6
  %179 = load i32, ptr %14, align 4, !tbaa !15
  %180 = sext i32 %179 to i64
  %181 = getelementptr inbounds float, ptr %178, i64 %180
  store float %177, ptr %181, align 4, !tbaa !13
  br label %182

182:                                              ; preds = %158
  %183 = load i32, ptr %14, align 4, !tbaa !15
  %184 = add nsw i32 %183, 1
  store i32 %184, ptr %14, align 4, !tbaa !15
  br label %138

185:                                              ; preds = %143
  call void @llvm.lifetime.end.p0(i64 4, ptr %11) #7
  ret void
}