; Function Attrs: nofree norecurse nosync nounwind memory(argmem: readwrite) uwtable
define internal fastcc void @_image_distance_transform(ptr noundef readonly captures(none) %0, ptr noundef captures(none) initializes((0, 8)) %1, ptr noundef writeonly captures(none) %2, ptr noundef captures(none) initializes((0, 4)) %3, i32 noundef %4) unnamed_addr #2 {
  store i32 0, ptr %3, align 4, !tbaa !10
  store float 0xC415AF1D80000000, ptr %1, align 4, !tbaa !6
  %6 = getelementptr inbounds nuw i8, ptr %1, i64 4
  store float 0x4415AF1D80000000, ptr %6, align 4, !tbaa !6
  %invariant.gep = getelementptr i8, ptr %1, i64 8
  %.not.not70 = icmp sgt i32 %4, 1
  br i1 %.not.not70, label %.lr.ph74.preheader, label %.preheader61

.lr.ph74.preheader:                               ; preds = %5
  %wide.trip.count = zext nneg i32 %4 to i64
  br label %.lr.ph74

.preheader61:                                     ; preds = %._crit_edge, %5
  %.not.not6075 = icmp sgt i32 %4, 0
  br i1 %.not.not6075, label %.preheader.preheader, label %._crit_edge78

.preheader.preheader:                             ; preds = %.preheader61
  %wide.trip.count93 = zext nneg i32 %4 to i64
  br label %.preheader

.lr.ph74:                                         ; preds = %.lr.ph74.preheader, %._crit_edge
  %7 = phi i32 [ 0, %.lr.ph74.preheader ], [ %10, %._crit_edge ]
  %indvars.iv84 = phi i64 [ 1, %.lr.ph74.preheader ], [ %indvars.iv.next85, %._crit_edge ]
  %.05871 = phi i32 [ 0, %.lr.ph74.preheader ], [ %45, %._crit_edge ]
  %8 = getelementptr inbounds nuw float, ptr %0, i64 %indvars.iv84
  %9 = load float, ptr %8, align 4, !tbaa !6
  %10 = trunc nuw nsw i64 %indvars.iv84 to i32
  %11 = uitofp nneg i32 %10 to float
  %12 = fmul reassoc nsz arcp contract afn float %11, %11
  %13 = fadd reassoc nsz arcp contract afn float %9, %12
  %14 = sext i32 %.05871 to i64
  %15 = sext i32 %7 to i64
  %16 = getelementptr inbounds float, ptr %0, i64 %15
  %17 = load float, ptr %16, align 4, !tbaa !6
  %18 = sitofp i32 %7 to float
  %19 = fmul reassoc nsz arcp contract afn float %18, %18
  %20 = fadd reassoc nsz arcp contract afn float %19, %17
  %.05665 = fsub reassoc nsz arcp contract afn float %13, %20
  %21 = getelementptr inbounds float, ptr %1, i64 %14
  %22 = load float, ptr %21, align 4, !tbaa !6
  %23 = sub nsw i32 %10, %7
  %24 = shl nsw i32 %23, 1
  %25 = sitofp i32 %24 to float
  %26 = fmul reassoc nsz arcp contract afn float %22, %25
  %27 = fcmp reassoc nsz arcp contract afn ugt float %.05665, %26
  br i1 %27, label %._crit_edge, label %.lr.ph

.lr.ph:                                           ; preds = %.lr.ph74, %.lr.ph
  %indvars.iv = phi i64 [ %indvars.iv.next, %.lr.ph ], [ %14, %.lr.ph74 ]
  %indvars.iv.next = add nsw i64 %indvars.iv, -1
  %28 = getelementptr inbounds i32, ptr %3, i64 %indvars.iv.next
  %29 = load i32, ptr %28, align 4, !tbaa !10
  %30 = sext i32 %29 to i64
  %31 = getelementptr inbounds float, ptr %0, i64 %30
  %32 = load float, ptr %31, align 4, !tbaa !6
  %33 = sitofp i32 %29 to float
  %34 = fmul reassoc nsz arcp contract afn float %33, %33
  %35 = fadd reassoc nsz arcp contract afn float %34, %32
  %.056 = fsub reassoc nsz arcp contract afn float %13, %35
  %36 = getelementptr inbounds float, ptr %1, i64 %indvars.iv.next
  %37 = load float, ptr %36, align 4, !tbaa !6
  %38 = sub nsw i32 %10, %29
  %39 = shl nsw i32 %38, 1
  %40 = sitofp i32 %39 to float
  %41 = fmul reassoc nsz arcp contract afn float %37, %40
  %42 = fcmp reassoc nsz arcp contract afn ugt float %.056, %41
  br i1 %42, label %._crit_edge.loopexit, label %.lr.ph

._crit_edge.loopexit:                             ; preds = %.lr.ph
  %43 = trunc nsw i64 %indvars.iv.next to i32
  br label %._crit_edge

._crit_edge:                                      ; preds = %._crit_edge.loopexit, %.lr.ph74
  %.lcssa63 = phi i64 [ %14, %.lr.ph74 ], [ %indvars.iv.next, %._crit_edge.loopexit ]
  %.1.lcssa = phi i32 [ %.05871, %.lr.ph74 ], [ %43, %._crit_edge.loopexit ]
  %.056.lcssa = phi float [ %.05665, %.lr.ph74 ], [ %.056, %._crit_edge.loopexit ]
  %.lcssa = phi float [ %25, %.lr.ph74 ], [ %40, %._crit_edge.loopexit ]
  %44 = fdiv reassoc nsz arcp contract afn float %.056.lcssa, %.lcssa
  %45 = add nsw i32 %.1.lcssa, 1
  %46 = sext i32 %45 to i64
  %47 = getelementptr inbounds i32, ptr %3, i64 %46
  store i32 %10, ptr %47, align 4, !tbaa !10
  %48 = getelementptr inbounds float, ptr %1, i64 %46
  store float %44, ptr %48, align 4, !tbaa !6
  %gep = getelementptr float, ptr %invariant.gep, i64 %.lcssa63
  store float 0x4415AF1D80000000, ptr %gep, align 4, !tbaa !6
  %indvars.iv.next85 = add nuw nsw i64 %indvars.iv84, 1
  %exitcond.not = icmp eq i64 %indvars.iv.next85, %wide.trip.count
  br i1 %exitcond.not, label %.preheader61, label %.lr.ph74

.preheader:                                       ; preds = %.preheader.preheader, %56
  %indvars.iv90 = phi i64 [ 0, %.preheader.preheader ], [ %indvars.iv.next91, %56 ]
  %.276 = phi i64 [ 0, %.preheader.preheader ], [ %indvars.iv87, %56 ]
  %49 = trunc nuw nsw i64 %indvars.iv90 to i32
  %50 = uitofp nneg i32 %49 to float
  %sext = shl i64 %.276, 32
  %51 = ashr exact i64 %sext, 32
  br label %52

._crit_edge78:                                    ; preds = %56, %.preheader61
  ret void

52:                                               ; preds = %.preheader, %52
  %indvars.iv87 = phi i64 [ %51, %.preheader ], [ %indvars.iv.next88, %52 ]
  %indvars.iv.next88 = add nsw i64 %indvars.iv87, 1
  %53 = getelementptr inbounds float, ptr %1, i64 %indvars.iv.next88
  %54 = load float, ptr %53, align 4, !tbaa !6
  %55 = fcmp reassoc nsz arcp contract afn olt float %54, %50
  br i1 %55, label %52, label %56

56:                                               ; preds = %52
  %sext95 = shl i64 %indvars.iv87, 32
  %57 = ashr exact i64 %sext95, 30
  %58 = getelementptr inbounds i8, ptr %3, i64 %57
  %59 = load i32, ptr %58, align 4, !tbaa !10
  %60 = sub nsw i32 %49, %59
  %61 = sitofp i32 %60 to float
  %62 = fmul reassoc nsz arcp contract afn float %61, %61
  %63 = sext i32 %59 to i64
  %64 = getelementptr inbounds float, ptr %0, i64 %63
  %65 = load float, ptr %64, align 4, !tbaa !6
  %66 = fadd reassoc nsz arcp contract afn float %62, %65
  %67 = getelementptr inbounds nuw float, ptr %2, i64 %indvars.iv90
  store float %66, ptr %67, align 4, !tbaa !6
  %indvars.iv.next91 = add nuw nsw i64 %indvars.iv90, 1
  %exitcond94.not = icmp eq i64 %indvars.iv.next91, %wide.trip.count93
  br i1 %exitcond94.not, label %._crit_edge78, label %.preheader
}